; Function Attrs: nounwind uwtable
define dso_local range(i64 0, 86400000000) i64 @time_pl_interval(ptr noundef readonly captures(none) %0) local_unnamed_addr #0 {
  %2 = getelementptr inbounds nuw i8, ptr %0, i64 32
  %3 = load i64, ptr %2, align 8
  %4 = getelementptr inbounds nuw i8, ptr %0, i64 48
  %5 = load i64, ptr %4, align 8
  %6 = inttoptr i64 %5 to ptr
  %7 = getelementptr inbounds nuw i8, ptr %6, i64 12
  %8 = load i32, ptr %7, align 4
  switch i32 %8, label %..thread_crit_edge [
    i32 -2147483648, label %9
    i32 2147483647, label %14
  ]

..thread_crit_edge:                               ; preds = %1
  %.pre = load i64, ptr %6, align 8
  br label %.thread

9:                                                ; preds = %1
  %10 = getelementptr inbounds nuw i8, ptr %6, i64 8
  %11 = load i32, ptr %10, align 8
  %12 = icmp eq i32 %11, -2147483648
  %.pre15 = load i64, ptr %6, align 8
  %13 = icmp eq i64 %.pre15, -9223372036854775808
  %or.cond = select i1 %12, i1 %13, i1 false
  br i1 %or.cond, label %19, label %.thread

14:                                               ; preds = %1
  %15 = getelementptr inbounds nuw i8, ptr %6, i64 8
  %16 = load i32, ptr %15, align 8
  %17 = icmp eq i32 %16, 2147483647
  %.pre16 = load i64, ptr %6, align 8
  %18 = icmp eq i64 %.pre16, 9223372036854775807
  %or.cond17 = select i1 %17, i1 %18, i1 false
  br i1 %or.cond17, label %19, label %.thread

19:                                               ; preds = %14, %9
  %20 = tail call zeroext i1 @errstart_cold(i32 noundef 21, ptr noundef null) #15
  tail call void @llvm.assume(i1 %20)
  %21 = tail call i32 @errcode(i32 noundef 134217858) #16
  %22 = tail call i32 (ptr, ...) @errmsg(ptr noundef nonnull @.str.24) #16
  tail call void @errfinish(ptr noundef nonnull @.str.3, i32 noundef 2080, ptr noundef nonnull @__func__.time_pl_interval) #16
  unreachable

.thread:                                          ; preds = %..thread_crit_edge, %9, %14
  %23 = phi i64 [ %.pre, %..thread_crit_edge ], [ %.pre15, %9 ], [ %.pre16, %14 ]
  %24 = add i64 %23, %3
  %.fr = freeze i64 %24
  %25 = srem i64 %.fr, 86400000000
  %26 = icmp slt i64 %25, 0
  %27 = add nsw i64 %25, 86400000000
  %spec.select = select i1 %26, i64 %27, i64 %25
  ret i64 %spec.select
}